target datalayout = "e-m:e-p270:32:32-p271:32:32-p272:64:64-i64:64-i128:128-f80:128-n8:16:32:64-S128"
target triple = "x86_64-pc-linux-gnu"

%struct._zend_compiler_globals = type { %struct._zend_stack, ptr, ptr, i32, ptr, ptr, ptr, ptr, i8, i8, i8, i8, i8, %struct._zend_llist, ptr, i8, i8, i8, i8, ptr, i32, i32, %struct._zend_oparray_context, %struct._zend_file_context, ptr, %struct._zend_array, ptr, i64, i8, i8, i8, ptr, ptr, %struct._zend_stack, ptr, i32, ptr, ptr, i64, i64, ptr, ptr, ptr, ptr, i32, %struct._zend_stack }
%struct._zend_llist = type { ptr, ptr, i64, i64, ptr, i8, ptr }
%struct._zend_oparray_context = type { i32, i32, i32, i32, i32, i32, i32, ptr, ptr, i8 }
%struct._zend_file_context = type { %struct._zend_declarables, ptr, i8, i8, ptr, ptr, ptr, %struct._zend_array }
%struct._zend_declarables = type { i64 }
%struct._zend_array = type { %struct._zend_refcounted_h, %union.anon.0, i32, %union.anon.1, i32, i32, i32, i32, i64, ptr }
%struct._zend_refcounted_h = type { i32, %union.anon }
%union.anon = type { i32 }
%union.anon.0 = type { i32 }
%union.anon.1 = type { ptr }
%struct._zend_stack = type { i32, i32, i32, ptr }
%struct._zend_php_scanner_globals = type { ptr, ptr, i32, ptr, ptr, ptr, ptr, ptr, i32, %struct._zend_stack, %struct._zend_ptr_stack, %struct._zend_stack, i8, i32, i8, ptr, i64, ptr, i64, ptr, ptr, ptr, i32, ptr, ptr }
%struct._zend_ptr_stack = type { i32, i32, ptr, ptr, i8 }
%struct._zend_lex_state = type { i32, ptr, ptr, ptr, ptr, ptr, i32, %struct._zend_stack, %struct._zend_ptr_stack, %struct._zend_stack, ptr, i32, ptr, ptr, i64, ptr, i64, ptr, ptr, ptr, ptr, ptr, ptr, ptr }

@compiler_globals = external global %struct._zend_compiler_globals, align 8
@language_scanner_globals = global %struct._zend_php_scanner_globals zeroinitializer, align 8

; Function Attrs: nounwind uwtable
define void @zend_restore_lexical_state(ptr noundef %0) #0 {
  %2 = alloca ptr, align 8
  %3 = alloca i32, align 4
  %4 = alloca ptr, align 8
  %5 = alloca i8, align 1
  %6 = alloca ptr, align 8
  store ptr %0, ptr %6, align 8
  %7 = load ptr, ptr %6, align 8
  %8 = getelementptr inbounds %struct._zend_lex_state, ptr %7, i32 0, i32 0
  %9 = load i32, ptr %8, align 8
  store i32 %9, ptr getelementptr inbounds (%struct._zend_php_scanner_globals, ptr @language_scanner_globals, i32 0, i32 2), align 8
  %10 = load ptr, ptr %6, align 8
  %11 = getelementptr inbounds %struct._zend_lex_state, ptr %10, i32 0, i32 1
  %12 = load ptr, ptr %11, align 8
  store ptr %12, ptr getelementptr inbounds (%struct._zend_php_scanner_globals, ptr @language_scanner_globals, i32 0, i32 3), align 8
  %13 = load ptr, ptr %6, align 8
  %14 = getelementptr inbounds %struct._zend_lex_state, ptr %13, i32 0, i32 2
  %15 = load ptr, ptr %14, align 8
  store ptr %15, ptr getelementptr inbounds (%struct._zend_php_scanner_globals, ptr @language_scanner_globals, i32 0, i32 4), align 8
  %16 = load ptr, ptr %6, align 8
  %17 = getelementptr inbounds %struct._zend_lex_state, ptr %16, i32 0, i32 3
  %18 = load ptr, ptr %17, align 8
  store ptr %18, ptr getelementptr inbounds (%struct._zend_php_scanner_globals, ptr @language_scanner_globals, i32 0, i32 5), align 8
  %19 = load ptr, ptr %6, align 8
  %20 = getelementptr inbounds %struct._zend_lex_state, ptr %19, i32 0, i32 4
  %21 = load ptr, ptr %20, align 8
  store ptr %21, ptr getelementptr inbounds (%struct._zend_php_scanner_globals, ptr @language_scanner_globals, i32 0, i32 6), align 8
  %22 = load ptr, ptr %6, align 8
  %23 = getelementptr inbounds %struct._zend_lex_state, ptr %22, i32 0, i32 5
  %24 = load ptr, ptr %23, align 8
  store ptr %24, ptr getelementptr inbounds (%struct._zend_php_scanner_globals, ptr @language_scanner_globals, i32 0, i32 7), align 8
  call void @zend_stack_destroy(ptr noundef getelementptr inbounds (%struct._zend_php_scanner_globals, ptr @language_scanner_globals, i32 0, i32 9))
  %25 = load ptr, ptr %6, align 8
  %26 = getelementptr inbounds %struct._zend_lex_state, ptr %25, i32 0, i32 7
  call void @llvm.memcpy.p0.p0.i64(ptr align 8 getelementptr inbounds (%struct._zend_php_scanner_globals, ptr @language_scanner_globals, i32 0, i32 9), ptr align 8 %26, i64 24, i1 false)
  call void @zend_stack_destroy(ptr noundef getelementptr inbounds (%struct._zend_php_scanner_globals, ptr @language_scanner_globals, i32 0, i32 11))
  %27 = load ptr, ptr %6, align 8
  %28 = getelementptr inbounds %struct._zend_lex_state, ptr %27, i32 0, i32 9
  call void @llvm.memcpy.p0.p0.i64(ptr align 8 getelementptr inbounds (%struct._zend_php_scanner_globals, ptr @language_scanner_globals, i32 0, i32 11), ptr align 8 %28, i64 24, i1 false)
  call void @zend_ptr_stack_clean(ptr noundef getelementptr inbounds (%struct._zend_php_scanner_globals, ptr @language_scanner_globals, i32 0, i32 10), ptr noundef @heredoc_label_dtor, i1 noundef zeroext true)
  call void @zend_ptr_stack_destroy(ptr noundef getelementptr inbounds (%struct._zend_php_scanner_globals, ptr @language_scanner_globals, i32 0, i32 10))
  %29 = load ptr, ptr %6, align 8
  %30 = getelementptr inbounds %struct._zend_lex_state, ptr %29, i32 0, i32 8
  call void @llvm.memcpy.p0.p0.i64(ptr align 8 getelementptr inbounds (%struct._zend_php_scanner_globals, ptr @language_scanner_globals, i32 0, i32 10), ptr align 8 %30, i64 32, i1 false)
  %31 = load ptr, ptr %6, align 8
  %32 = getelementptr inbounds %struct._zend_lex_state, ptr %31, i32 0, i32 10
  %33 = load ptr, ptr %32, align 8
  store ptr %33, ptr @language_scanner_globals, align 8
  %34 = load ptr, ptr %6, align 8
  %35 = getelementptr inbounds %struct._zend_lex_state, ptr %34, i32 0, i32 6
  %36 = load i32, ptr %35, align 8
  store i32 %36, ptr getelementptr inbounds (%struct._zend_php_scanner_globals, ptr @language_scanner_globals, i32 0, i32 8), align 8
  %37 = load ptr, ptr %6, align 8
  %38 = getelementptr inbounds %struct._zend_lex_state, ptr %37, i32 0, i32 11
  %39 = load i32, ptr %38, align 8
  store i32 %39, ptr getelementptr inbounds (%struct._zend_compiler_globals, ptr @compiler_globals, i32 0, i32 3), align 8
  %40 = load ptr, ptr %6, align 8
  %41 = getelementptr inbounds %struct._zend_lex_state, ptr %40, i32 0, i32 12
  %42 = load ptr, ptr %41, align 8
  call void @zend_restore_compiled_filename(ptr noundef %42)
  %43 = load ptr, ptr getelementptr inbounds (%struct._zend_php_scanner_globals, ptr @language_scanner_globals, i32 0, i32 17), align 8
  %44 = icmp ne ptr %43, null
  br i1 %44, label %45, label %47

45:                                               ; preds = %1
  %46 = load ptr, ptr getelementptr inbounds (%struct._zend_php_scanner_globals, ptr @language_scanner_globals, i32 0, i32 17), align 8
  call void @_efree(ptr noundef %46)
  store ptr null, ptr getelementptr inbounds (%struct._zend_php_scanner_globals, ptr @language_scanner_globals, i32 0, i32 17), align 8
  br label %47

47:                                               ; preds = %45, %1
  %48 = load ptr, ptr %6, align 8
  %49 = getelementptr inbounds %struct._zend_lex_state, ptr %48, i32 0, i32 13
  %50 = load ptr, ptr %49, align 8
  store ptr %50, ptr getelementptr inbounds (%struct._zend_php_scanner_globals, ptr @language_scanner_globals, i32 0, i32 15), align 8
  %51 = load ptr, ptr %6, align 8
  %52 = getelementptr inbounds %struct._zend_lex_state, ptr %51, i32 0, i32 14
  %53 = load i64, ptr %52, align 8
  store i64 %53, ptr getelementptr inbounds (%struct._zend_php_scanner_globals, ptr @language_scanner_globals, i32 0, i32 16), align 8
  %54 = load ptr, ptr %6, align 8
  %55 = getelementptr inbounds %struct._zend_lex_state, ptr %54, i32 0, i32 15
  %56 = load ptr, ptr %55, align 8
  store ptr %56, ptr getelementptr inbounds (%struct._zend_php_scanner_globals, ptr @language_scanner_globals, i32 0, i32 17), align 8
  %57 = load ptr, ptr %6, align 8
  %58 = getelementptr inbounds %struct._zend_lex_state, ptr %57, i32 0, i32 16
  %59 = load i64, ptr %58, align 8
  store i64 %59, ptr getelementptr inbounds (%struct._zend_php_scanner_globals, ptr @language_scanner_globals, i32 0, i32 18), align 8
  %60 = load ptr, ptr %6, align 8
  %61 = getelementptr inbounds %struct._zend_lex_state, ptr %60, i32 0, i32 17
  %62 = load ptr, ptr %61, align 8
  store ptr %62, ptr getelementptr inbounds (%struct._zend_php_scanner_globals, ptr @language_scanner_globals, i32 0, i32 19), align 8
  %63 = load ptr, ptr %6, align 8
  %64 = getelementptr inbounds %struct._zend_lex_state, ptr %63, i32 0, i32 18
  %65 = load ptr, ptr %64, align 8
  store ptr %65, ptr getelementptr inbounds (%struct._zend_php_scanner_globals, ptr @language_scanner_globals, i32 0, i32 20), align 8
  %66 = load ptr, ptr %6, align 8
  %67 = getelementptr inbounds %struct._zend_lex_state, ptr %66, i32 0, i32 19
  %68 = load ptr, ptr %67, align 8
  store ptr %68, ptr getelementptr inbounds (%struct._zend_php_scanner_globals, ptr @language_scanner_globals, i32 0, i32 21), align 8
  %69 = load ptr, ptr %6, align 8
  %70 = getelementptr inbounds %struct._zend_lex_state, ptr %69, i32 0, i32 20
  %71 = load ptr, ptr %70, align 8
  store ptr %71, ptr getelementptr inbounds (%struct._zend_php_scanner_globals, ptr @language_scanner_globals, i32 0, i32 23), align 8
  %72 = load ptr, ptr %6, align 8
  %73 = getelementptr inbounds %struct._zend_lex_state, ptr %72, i32 0, i32 21
  %74 = load ptr, ptr %73, align 8
  store ptr %74, ptr getelementptr inbounds (%struct._zend_php_scanner_globals, ptr @language_scanner_globals, i32 0, i32 24), align 8
  %75 = load ptr, ptr %6, align 8
  %76 = getelementptr inbounds %struct._zend_lex_state, ptr %75, i32 0, i32 22
  %77 = load ptr, ptr %76, align 8
  store ptr %77, ptr getelementptr inbounds (%struct._zend_compiler_globals, ptr @compiler_globals, i32 0, i32 31), align 8
  %78 = load ptr, ptr %6, align 8
  %79 = getelementptr inbounds %struct._zend_lex_state, ptr %78, i32 0, i32 23
  %80 = load ptr, ptr %79, align 8
  store ptr %80, ptr getelementptr inbounds (%struct._zend_compiler_globals, ptr @compiler_globals, i32 0, i32 32), align 8
  br label %81

81:                                               ; preds = %47
  %82 = load ptr, ptr getelementptr inbounds (%struct._zend_compiler_globals, ptr @compiler_globals, i32 0, i32 19), align 8
  %83 = icmp ne ptr %82, null
  br i1 %83, label %84, label %112

84:                                               ; preds = %81
  %85 = load ptr, ptr getelementptr inbounds (%struct._zend_compiler_globals, ptr @compiler_globals, i32 0, i32 19), align 8
  store ptr %85, ptr %4, align 8
  store i8 0, ptr %5, align 1
  %86 = load ptr, ptr %4, align 8
  %87 = getelementptr inbounds %struct._zend_refcounted_h, ptr %86, i32 0, i32 1
  %88 = load i32, ptr %87, align 4
  store i32 %88, ptr %3, align 4
  %89 = load i32, ptr %3, align 4
  %90 = and i32 %89, 1008
  %91 = and i32 %90, 64
  %92 = icmp ne i32 %91, 0
  br i1 %92, label %111, label %93

93:                                               ; preds = %84
  %94 = load ptr, ptr %4, align 8
  store ptr %94, ptr %2, align 8
  %95 = load ptr, ptr %2, align 8
  %96 = load i32, ptr %95, align 4
  %97 = icmp ugt i32 %96, 0
  call void @llvm.assume(i1 %97)
  %98 = load ptr, ptr %2, align 8
  %99 = load i32, ptr %98, align 4
  %100 = add i32 %99, -1
  store i32 %100, ptr %98, align 4
  %101 = icmp eq i32 %100, 0
  br i1 %101, label %102, label %110

102:                                              ; preds = %93
  %103 = load i8, ptr %5, align 1
  %104 = trunc i8 %103 to i1
  br i1 %104, label %105, label %107

105:                                              ; preds = %102
  %106 = load ptr, ptr %4, align 8
  call void @free(ptr noundef %106) #12
  br label %109

107:                                              ; preds = %102
  %108 = load ptr, ptr %4, align 8
  call void @_efree(ptr noundef %108) #12
  br label %109

109:                                              ; preds = %107, %105
  br label %110

110:                                              ; preds = %109, %93
  br label %111

111:                                              ; preds = %110, %84
  store ptr null, ptr getelementptr inbounds (%struct._zend_compiler_globals, ptr @compiler_globals, i32 0, i32 19), align 8
  br label %112

112:                                              ; preds = %111, %81
  br label %113

113:                                              ; preds = %112
  ret void
}