; Function Attrs: nounwind uwtable
define void @zend_restore_lexical_state(ptr nocapture noundef readonly %0) local_unnamed_addr #0 {
  %2 = load i32, ptr %0, align 8
  store i32 %2, ptr getelementptr inbounds (%struct._zend_php_scanner_globals, ptr @language_scanner_globals, i64 0, i32 2), align 8
  %3 = getelementptr inbounds i8, ptr %0, i64 8
  %4 = load ptr, ptr %3, align 8
  store ptr %4, ptr getelementptr inbounds (%struct._zend_php_scanner_globals, ptr @language_scanner_globals, i64 0, i32 3), align 8
  %5 = getelementptr inbounds i8, ptr %0, i64 16
  %6 = load ptr, ptr %5, align 8
  store ptr %6, ptr getelementptr inbounds (%struct._zend_php_scanner_globals, ptr @language_scanner_globals, i64 0, i32 4), align 8
  %7 = getelementptr inbounds i8, ptr %0, i64 24
  %8 = load ptr, ptr %7, align 8
  store ptr %8, ptr getelementptr inbounds (%struct._zend_php_scanner_globals, ptr @language_scanner_globals, i64 0, i32 5), align 8
  %9 = getelementptr inbounds i8, ptr %0, i64 32
  %10 = load ptr, ptr %9, align 8
  store ptr %10, ptr getelementptr inbounds (%struct._zend_php_scanner_globals, ptr @language_scanner_globals, i64 0, i32 6), align 8
  %11 = getelementptr inbounds i8, ptr %0, i64 40
  %12 = load ptr, ptr %11, align 8
  store ptr %12, ptr getelementptr inbounds (%struct._zend_php_scanner_globals, ptr @language_scanner_globals, i64 0, i32 7), align 8
  tail call void @zend_stack_destroy(ptr noundef nonnull getelementptr inbounds (%struct._zend_php_scanner_globals, ptr @language_scanner_globals, i64 0, i32 9)) #16
  %13 = getelementptr inbounds i8, ptr %0, i64 56
  tail call void @llvm.memcpy.p0.p0.i64(ptr noundef nonnull align 8 dereferenceable(24) getelementptr inbounds (%struct._zend_php_scanner_globals, ptr @language_scanner_globals, i64 0, i32 9), ptr noundef nonnull align 8 dereferenceable(24) %13, i64 24, i1 false)
  tail call void @zend_stack_destroy(ptr noundef nonnull getelementptr inbounds (%struct._zend_php_scanner_globals, ptr @language_scanner_globals, i64 0, i32 11)) #16
  %14 = getelementptr inbounds i8, ptr %0, i64 112
  tail call void @llvm.memcpy.p0.p0.i64(ptr noundef nonnull align 8 dereferenceable(24) getelementptr inbounds (%struct._zend_php_scanner_globals, ptr @language_scanner_globals, i64 0, i32 11), ptr noundef nonnull align 8 dereferenceable(24) %14, i64 24, i1 false)
  tail call void @zend_ptr_stack_clean(ptr noundef nonnull getelementptr inbounds (%struct._zend_php_scanner_globals, ptr @language_scanner_globals, i64 0, i32 10), ptr noundef nonnull @heredoc_label_dtor, i1 noundef zeroext true) #16
  tail call void @zend_ptr_stack_destroy(ptr noundef nonnull getelementptr inbounds (%struct._zend_php_scanner_globals, ptr @language_scanner_globals, i64 0, i32 10)) #16
  %15 = getelementptr inbounds i8, ptr %0, i64 80
  tail call void @llvm.memcpy.p0.p0.i64(ptr noundef nonnull align 8 dereferenceable(32) getelementptr inbounds (%struct._zend_php_scanner_globals, ptr @language_scanner_globals, i64 0, i32 10), ptr noundef nonnull align 8 dereferenceable(32) %15, i64 32, i1 false)
  %16 = getelementptr inbounds i8, ptr %0, i64 136
  %17 = load ptr, ptr %16, align 8
  store ptr %17, ptr @language_scanner_globals, align 8
  %18 = getelementptr inbounds i8, ptr %0, i64 48
  %19 = load i32, ptr %18, align 8
  store i32 %19, ptr getelementptr inbounds (%struct._zend_php_scanner_globals, ptr @language_scanner_globals, i64 0, i32 8), align 8
  %20 = getelementptr inbounds i8, ptr %0, i64 144
  %21 = load i32, ptr %20, align 8
  store i32 %21, ptr getelementptr inbounds (%struct._zend_compiler_globals, ptr @compiler_globals, i64 0, i32 3), align 8
  %22 = getelementptr inbounds i8, ptr %0, i64 152
  %23 = load ptr, ptr %22, align 8
  tail call void @zend_restore_compiled_filename(ptr noundef %23) #16
  %24 = load ptr, ptr getelementptr inbounds (%struct._zend_php_scanner_globals, ptr @language_scanner_globals, i64 0, i32 17), align 8
  %.not = icmp eq ptr %24, null
  br i1 %.not, label %26, label %25

25:                                               ; preds = %1
  tail call void @_efree(ptr noundef nonnull %24) #16
  store ptr null, ptr getelementptr inbounds (%struct._zend_php_scanner_globals, ptr @language_scanner_globals, i64 0, i32 17), align 8
  br label %26

26:                                               ; preds = %25, %1
  %27 = getelementptr inbounds i8, ptr %0, i64 160
  %28 = load ptr, ptr %27, align 8
  store ptr %28, ptr getelementptr inbounds (%struct._zend_php_scanner_globals, ptr @language_scanner_globals, i64 0, i32 15), align 8
  %29 = getelementptr inbounds i8, ptr %0, i64 168
  %30 = load i64, ptr %29, align 8
  store i64 %30, ptr getelementptr inbounds (%struct._zend_php_scanner_globals, ptr @language_scanner_globals, i64 0, i32 16), align 8
  %31 = getelementptr inbounds i8, ptr %0, i64 176
  %32 = load ptr, ptr %31, align 8
  store ptr %32, ptr getelementptr inbounds (%struct._zend_php_scanner_globals, ptr @language_scanner_globals, i64 0, i32 17), align 8
  %33 = getelementptr inbounds i8, ptr %0, i64 184
  %34 = load i64, ptr %33, align 8
  store i64 %34, ptr getelementptr inbounds (%struct._zend_php_scanner_globals, ptr @language_scanner_globals, i64 0, i32 18), align 8
  %35 = getelementptr inbounds i8, ptr %0, i64 192
  %36 = load ptr, ptr %35, align 8
  store ptr %36, ptr getelementptr inbounds (%struct._zend_php_scanner_globals, ptr @language_scanner_globals, i64 0, i32 19), align 8
  %37 = getelementptr inbounds i8, ptr %0, i64 200
  %38 = load ptr, ptr %37, align 8
  store ptr %38, ptr getelementptr inbounds (%struct._zend_php_scanner_globals, ptr @language_scanner_globals, i64 0, i32 20), align 8
  %39 = getelementptr inbounds i8, ptr %0, i64 208
  %40 = load ptr, ptr %39, align 8
  store ptr %40, ptr getelementptr inbounds (%struct._zend_php_scanner_globals, ptr @language_scanner_globals, i64 0, i32 21), align 8
  %41 = getelementptr inbounds i8, ptr %0, i64 216
  %42 = load ptr, ptr %41, align 8
  store ptr %42, ptr getelementptr inbounds (%struct._zend_php_scanner_globals, ptr @language_scanner_globals, i64 0, i32 23), align 8
  %43 = getelementptr inbounds i8, ptr %0, i64 224
  %44 = load ptr, ptr %43, align 8
  store ptr %44, ptr getelementptr inbounds (%struct._zend_php_scanner_globals, ptr @language_scanner_globals, i64 0, i32 24), align 8
  %45 = getelementptr inbounds i8, ptr %0, i64 232
  %46 = load ptr, ptr %45, align 8
  store ptr %46, ptr getelementptr inbounds (%struct._zend_compiler_globals, ptr @compiler_globals, i64 0, i32 31), align 8
  %47 = getelementptr inbounds i8, ptr %0, i64 240
  %48 = load ptr, ptr %47, align 8
  store ptr %48, ptr getelementptr inbounds (%struct._zend_compiler_globals, ptr @compiler_globals, i64 0, i32 32), align 8
  %49 = load ptr, ptr getelementptr inbounds (%struct._zend_compiler_globals, ptr @compiler_globals, i64 0, i32 19), align 8
  %.not32 = icmp eq ptr %49, null
  br i1 %.not32, label %61, label %50

50:                                               ; preds = %26
  %51 = getelementptr inbounds i8, ptr %49, i64 4
  %52 = load i32, ptr %51, align 4
  %53 = and i32 %52, 64
  %.not33 = icmp eq i32 %53, 0
  br i1 %.not33, label %54, label %60

54:                                               ; preds = %50
  %55 = load i32, ptr %49, align 4
  %56 = icmp ne i32 %55, 0
  tail call void @llvm.assume(i1 %56)
  %57 = add i32 %55, -1
  store i32 %57, ptr %49, align 4
  %58 = icmp eq i32 %57, 0
  br i1 %58, label %59, label %60

59:                                               ; preds = %54
  tail call void @_efree(ptr noundef nonnull %49) #16
  br label %60

60:                                               ; preds = %54, %59, %50
  store ptr null, ptr getelementptr inbounds (%struct._zend_compiler_globals, ptr @compiler_globals, i64 0, i32 19), align 8
  br label %61

61:                                               ; preds = %26, %60
  ret void
}